target datalayout = "e-m:e-p270:32:32-p271:32:32-p272:64:64-i64:64-i128:128-f80:128-n8:16:32:64-S128"
target triple = "x86_64-pc-linux-gnu"

%struct.VVCLocalContext = type { i8, i8, i8, i8, i32, i32, [4 x i8], [3276800 x i8], [16384 x i16], [16384 x i16], [16384 x i16], [32768 x i8], [332800 x i8], [368640 x i8], [368640 x i8], [17424 x i32], %struct.anon, %struct.anon.0, ptr, [2 x [1024 x %struct.ReconstructedArea]], [2 x i32], %struct.NeighbourAvailable, i32, ptr, ptr, ptr, ptr }
%struct.anon = type { i32, i8, i32, i32, i32, [3 x i32], i32, i32, i32, i32, i32, i32 }
%struct.anon.0 = type { i32, i32, i32 }
%struct.ReconstructedArea = type { i32, i32, i32, i32 }
%struct.NeighbourAvailable = type { i32, i32, i32, i32, i32 }
%struct.Palette = type { i8, [63 x i16] }
%struct.MvField = type { [2 x %struct.Mv], [2 x i8], i8, i8, i8, i8 }
%struct.Mv = type { i32, i32 }
%struct.CodingUnit = type { i32, i32, i32, i32, i32, i32, i32, i8, i8, i8, i8, i32, i32, i8, i8, i8, i8, i8, i32, i32, i32, i32, i32, i32, [3 x i32], [3 x i32], %struct.anon.3, [4 x i8], [3 x %struct.Palette], [4 x i8], %struct.PredictionUnit, ptr }
%struct.anon.3 = type { ptr, ptr }
%struct.PredictionUnit = type { i8, i8, i8, i8, i8, i8, [2 x %struct.MvField], i32, %struct.MotionInfo, i8, i8, [2 x [16 x i16]], [2 x [16 x i16]], [2 x i32], [4 x i8] }
%struct.MotionInfo = type { i32, [2 x i8], i8, i8, i32, [2 x [3 x %struct.Mv]], i32, i32 }

; Function Attrs: nounwind uwtable
define i32 @ff_vvc_intra_mip_mode(ptr noundef %0) #0 {
  %2 = alloca ptr, align 8
  %3 = alloca i32, align 4
  %4 = alloca i32, align 4
  %5 = alloca i32, align 4
  store ptr %0, ptr %2, align 8, !tbaa !4
  call void @llvm.lifetime.start.p0(i64 4, ptr %3) #9
  %6 = load ptr, ptr %2, align 8, !tbaa !4
  %7 = getelementptr inbounds nuw %struct.VVCLocalContext, ptr %6, i32 0, i32 18
  %8 = load ptr, ptr %7, align 8, !tbaa !135
  %9 = getelementptr inbounds nuw %struct.CodingUnit, ptr %8, i32 0, i32 3
  %10 = load i32, ptr %9, align 4, !tbaa !144
  store i32 %10, ptr %3, align 4, !tbaa !9
  call void @llvm.lifetime.start.p0(i64 4, ptr %4) #9
  %11 = load ptr, ptr %2, align 8, !tbaa !4
  %12 = getelementptr inbounds nuw %struct.VVCLocalContext, ptr %11, i32 0, i32 18
  %13 = load ptr, ptr %12, align 8, !tbaa !135
  %14 = getelementptr inbounds nuw %struct.CodingUnit, ptr %13, i32 0, i32 4
  %15 = load i32, ptr %14, align 8, !tbaa !145
  store i32 %15, ptr %4, align 4, !tbaa !9
  call void @llvm.lifetime.start.p0(i64 4, ptr %5) #9
  %16 = load i32, ptr %3, align 4, !tbaa !9
  %17 = icmp eq i32 %16, 4
  br i1 %17, label %18, label %22

18:                                               ; preds = %1
  %19 = load i32, ptr %4, align 4, !tbaa !9
  %20 = icmp eq i32 %19, 4
  br i1 %20, label %21, label %22

21:                                               ; preds = %18
  br label %39

22:                                               ; preds = %18, %1
  %23 = load i32, ptr %3, align 4, !tbaa !9
  %24 = icmp eq i32 %23, 4
  br i1 %24, label %36, label %25

25:                                               ; preds = %22
  %26 = load i32, ptr %4, align 4, !tbaa !9
  %27 = icmp eq i32 %26, 4
  br i1 %27, label %36, label %28

28:                                               ; preds = %25
  %29 = load i32, ptr %3, align 4, !tbaa !9
  %30 = icmp eq i32 %29, 8
  br i1 %30, label %31, label %34

31:                                               ; preds = %28
  %32 = load i32, ptr %4, align 4, !tbaa !9
  %33 = icmp eq i32 %32, 8
  br label %34

34:                                               ; preds = %31, %28
  %35 = phi i1 [ false, %28 ], [ %33, %31 ]
  br label %36

36:                                               ; preds = %34, %25, %22
  %37 = phi i1 [ true, %25 ], [ true, %22 ], [ %35, %34 ]
  %38 = select i1 %37, i32 7, i32 5
  br label %39

39:                                               ; preds = %36, %21
  %40 = phi i32 [ 15, %21 ], [ %38, %36 ]
  store i32 %40, ptr %5, align 4, !tbaa !9
  %41 = load ptr, ptr %2, align 8, !tbaa !4
  %42 = load i32, ptr %5, align 4, !tbaa !9
  %43 = call i32 @truncated_binary_decode(ptr noundef %41, i32 noundef %42)
  call void @llvm.lifetime.end.p0(i64 4, ptr %5) #9
  call void @llvm.lifetime.end.p0(i64 4, ptr %4) #9
  call void @llvm.lifetime.end.p0(i64 4, ptr %3) #9
  ret i32 %43
}