; Function Attrs: nofree norecurse nosync nounwind memory(readwrite, inaccessiblemem: none) uwtable
define i32 @ff_vvc_intra_mip_mode(ptr noundef readonly captures(none) %0) local_unnamed_addr #3 {
  %2 = getelementptr inbounds nuw i8, ptr %0, i64 4547736
  %3 = load ptr, ptr %2, align 8, !tbaa !124
  %4 = getelementptr inbounds nuw i8, ptr %3, i64 12
  %5 = load i32, ptr %4, align 4, !tbaa !132
  %6 = getelementptr inbounds nuw i8, ptr %3, i64 16
  %7 = load i32, ptr %6, align 8, !tbaa !133
  %8 = icmp eq i32 %5, 4
  %9 = icmp eq i32 %7, 4
  %or.cond = select i1 %8, i1 %9, i1 false
  br i1 %or.cond, label %17, label %10

10:                                               ; preds = %1
  %11 = icmp eq i32 %5, 8
  %12 = icmp eq i32 %7, 8
  %13 = select i1 %11, i1 %12, i1 false
  %14 = or i1 %9, %13
  %15 = select i1 %8, i1 true, i1 %14
  %16 = select i1 %15, i32 7, i32 5
  br label %17

17:                                               ; preds = %1, %10
  %18 = phi i32 [ %16, %10 ], [ 15, %1 ]
  %19 = tail call fastcc i32 @truncated_binary_decode(ptr noundef nonnull %0, i32 noundef %18)
  ret i32 %19
}